target datalayout = "e-m:e-p270:32:32-p271:32:32-p272:64:64-i64:64-i128:128-f80:128-n8:16:32:64-S128"
target triple = "x86_64-pc-linux-gnu"

%struct.WOLFSSL = type <{ ptr, ptr, ptr, ptr, [48 x i8], [48 x i8], ptr, ptr, ptr, ptr, ptr, ptr, ptr, ptr, ptr, ptr, ptr, ptr, ptr, i32, [4 x i8], %struct.WOLFSSL_CIPHER, ptr, %struct.Ciphers, %struct.Ciphers, [8 x i8], %struct.Buffers, ptr, ptr, %struct.WOLFSSL_ALERT_HISTORY, %struct.WOLFSSL_ALERT, i32, i32, i32, i32, i32, i32, i32, i16, [2 x i8], i32, i8, %struct.RecordLayerHeader, %struct.MsgsReceived, %struct.ProtocolVersion, %struct.ProtocolVersion, %struct.CipherSpecs, [2 x i8], %struct.Keys, %struct.Options, ptr, i8, i8, i16, [10 x i16], i8, i8, i16, i16, [38 x i8], i32, i32, [4 x i8], ptr, i8, i8, [6 x i8], ptr, ptr, i16, i8, i8, i32, i8, [3 x i8], i32, %struct.OneTimeAuth, ptr }>
%struct.WOLFSSL_CIPHER = type { i8, i8, ptr }
%struct.Ciphers = type { ptr, ptr, ptr, ptr, i8, i8 }
%struct.Buffers = type { %struct.bufferStatic, %struct.bufferStatic, %struct.WOLFSSL_BUFFER_INFO, %struct.WOLFSSL_BUFFER_INFO, %struct.WOLFSSL_BUFFER_INFO, %struct.WOLFSSL_BUFFER_INFO, i32, i32, i8, i8, i8, i8, %struct.WOLFSSL_BUFFER_INFO, %struct.WOLFSSL_BUFFER_INFO, %struct.WOLFSSL_BUFFER_INFO, %struct.WOLFSSL_BUFFER_INFO, ptr, ptr, ptr, i8, i8, i32, i32, ptr, i32, [1 x ptr] }
%struct.bufferStatic = type { [5 x i8], ptr, i32, i32, i32, i8, i8 }
%struct.WOLFSSL_BUFFER_INFO = type { ptr, i32 }
%struct.WOLFSSL_ALERT_HISTORY = type { %struct.WOLFSSL_ALERT, %struct.WOLFSSL_ALERT }
%struct.WOLFSSL_ALERT = type { i32, i32 }
%struct.RecordLayerHeader = type { i8, i8, i8, [2 x i8] }
%struct.MsgsReceived = type { i32 }
%struct.ProtocolVersion = type { i8, i8 }
%struct.CipherSpecs = type { i16, i16, i16, i16, i8, i8, i8, i8, i8, i8, i8, i8 }
%struct.Keys = type { [64 x i8], [64 x i8], [32 x i8], [32 x i8], [16 x i8], [16 x i8], [8 x i8], [12 x i8], [12 x i8], i32, i32, i32, i32, i32, i32, i8, i8, i8, i8 }
%struct.Options = type { i64, i64, i8, i8, i8, i8, i8, i8, i8, i8, i8, i8, i8, i8, i8, i8, i8, i8, i8, i8, i8, i8, i8, i16, i16, i16, i16, i16, i8 }
%struct.OneTimeAuth = type { ptr, i8 }

; Function Attrs: nounwind uwtable
define internal i32 @TLSX_PopulateSupportedGroups(ptr noundef %0, ptr noundef %1) #0 {
  %3 = alloca i32, align 4
  %4 = alloca ptr, align 8
  %5 = alloca ptr, align 8
  %6 = alloca i32, align 4
  %7 = alloca i32, align 4
  %8 = alloca i32, align 4
  store ptr %0, ptr %4, align 8, !tbaa !3
  store ptr %1, ptr %5, align 8, !tbaa !75
  call void @llvm.lifetime.start.p0(i64 4, ptr %6) #8
  store i32 1, ptr %6, align 4, !tbaa !12
  %9 = load ptr, ptr %4, align 8, !tbaa !3
  %10 = getelementptr inbounds nuw %struct.WOLFSSL, ptr %9, i32 0, i32 55
  %11 = load i8, ptr %10, align 16, !tbaa !82
  %12 = zext i8 %11 to i32
  %13 = icmp ne i32 %12, 0
  br i1 %13, label %14, label %44

14:                                               ; preds = %2
  call void @llvm.lifetime.start.p0(i64 4, ptr %7) #8
  store i32 0, ptr %7, align 4, !tbaa !12
  br label %15

15:                                               ; preds = %39, %14
  %16 = load i32, ptr %7, align 4, !tbaa !12
  %17 = load ptr, ptr %4, align 8, !tbaa !3
  %18 = getelementptr inbounds nuw %struct.WOLFSSL, ptr %17, i32 0, i32 55
  %19 = load i8, ptr %18, align 16, !tbaa !82
  %20 = zext i8 %19 to i32
  %21 = icmp slt i32 %16, %20
  br i1 %21, label %22, label %42

22:                                               ; preds = %15
  %23 = load ptr, ptr %5, align 8, !tbaa !75
  %24 = load ptr, ptr %4, align 8, !tbaa !3
  %25 = getelementptr inbounds nuw %struct.WOLFSSL, ptr %24, i32 0, i32 54
  %26 = load i32, ptr %7, align 4, !tbaa !12
  %27 = sext i32 %26 to i64
  %28 = getelementptr inbounds [10 x i16], ptr %25, i64 0, i64 %27
  %29 = load i16, ptr %28, align 2, !tbaa !73
  %30 = load ptr, ptr %4, align 8, !tbaa !3
  %31 = getelementptr inbounds nuw %struct.WOLFSSL, ptr %30, i32 0, i32 12
  %32 = load ptr, ptr %31, align 16, !tbaa !52
  %33 = call i32 @TLSX_UseSupportedCurve(ptr noundef %23, i16 noundef zeroext %29, ptr noundef %32)
  store i32 %33, ptr %6, align 4, !tbaa !12
  %34 = load i32, ptr %6, align 4, !tbaa !12
  %35 = icmp ne i32 %34, 1
  br i1 %35, label %36, label %38

36:                                               ; preds = %22
  %37 = load i32, ptr %6, align 4, !tbaa !12
  store i32 %37, ptr %3, align 4
  store i32 1, ptr %8, align 4
  br label %43

38:                                               ; preds = %22
  br label %39

39:                                               ; preds = %38
  %40 = load i32, ptr %7, align 4, !tbaa !12
  %41 = add nsw i32 %40, 1
  store i32 %41, ptr %7, align 4, !tbaa !12
  br label %15, !llvm.loop !134

42:                                               ; preds = %15
  store i32 1, ptr %3, align 4
  store i32 1, ptr %8, align 4
  br label %43

43:                                               ; preds = %42, %36
  call void @llvm.lifetime.end.p0(i64 4, ptr %7) #8
  br label %111

44:                                               ; preds = %2
  %45 = load ptr, ptr %5, align 8, !tbaa !75
  %46 = load ptr, ptr %4, align 8, !tbaa !3
  %47 = getelementptr inbounds nuw %struct.WOLFSSL, ptr %46, i32 0, i32 12
  %48 = load ptr, ptr %47, align 16, !tbaa !52
  %49 = call i32 @TLSX_UseSupportedCurve(ptr noundef %45, i16 noundef zeroext 25, ptr noundef %48)
  store i32 %49, ptr %6, align 4, !tbaa !12
  %50 = load i32, ptr %6, align 4, !tbaa !12
  %51 = icmp ne i32 %50, 1
  br i1 %51, label %52, label %54

52:                                               ; preds = %44
  %53 = load i32, ptr %6, align 4, !tbaa !12
  store i32 %53, ptr %3, align 4
  store i32 1, ptr %8, align 4
  br label %111

54:                                               ; preds = %44
  %55 = load ptr, ptr %5, align 8, !tbaa !75
  %56 = load ptr, ptr %4, align 8, !tbaa !3
  %57 = getelementptr inbounds nuw %struct.WOLFSSL, ptr %56, i32 0, i32 12
  %58 = load ptr, ptr %57, align 16, !tbaa !52
  %59 = call i32 @TLSX_UseSupportedCurve(ptr noundef %55, i16 noundef zeroext 24, ptr noundef %58)
  store i32 %59, ptr %6, align 4, !tbaa !12
  %60 = load i32, ptr %6, align 4, !tbaa !12
  %61 = icmp ne i32 %60, 1
  br i1 %61, label %62, label %64

62:                                               ; preds = %54
  %63 = load i32, ptr %6, align 4, !tbaa !12
  store i32 %63, ptr %3, align 4
  store i32 1, ptr %8, align 4
  br label %111

64:                                               ; preds = %54
  %65 = load ptr, ptr %5, align 8, !tbaa !75
  %66 = load ptr, ptr %4, align 8, !tbaa !3
  %67 = getelementptr inbounds nuw %struct.WOLFSSL, ptr %66, i32 0, i32 12
  %68 = load ptr, ptr %67, align 16, !tbaa !52
  %69 = call i32 @TLSX_UseSupportedCurve(ptr noundef %65, i16 noundef zeroext 23, ptr noundef %68)
  store i32 %69, ptr %6, align 4, !tbaa !12
  %70 = load i32, ptr %6, align 4, !tbaa !12
  %71 = icmp ne i32 %70, 1
  br i1 %71, label %72, label %74

72:                                               ; preds = %64
  %73 = load i32, ptr %6, align 4, !tbaa !12
  store i32 %73, ptr %3, align 4
  store i32 1, ptr %8, align 4
  br label %111

74:                                               ; preds = %64
  %75 = load ptr, ptr %5, align 8, !tbaa !75
  %76 = load ptr, ptr %4, align 8, !tbaa !3
  %77 = getelementptr inbounds nuw %struct.WOLFSSL, ptr %76, i32 0, i32 12
  %78 = load ptr, ptr %77, align 16, !tbaa !52
  %79 = call i32 @TLSX_UseSupportedCurve(ptr noundef %75, i16 noundef zeroext 21, ptr noundef %78)
  store i32 %79, ptr %6, align 4, !tbaa !12
  %80 = load i32, ptr %6, align 4, !tbaa !12
  %81 = icmp ne i32 %80, 1
  br i1 %81, label %82, label %84

82:                                               ; preds = %74
  %83 = load i32, ptr %6, align 4, !tbaa !12
  store i32 %83, ptr %3, align 4
  store i32 1, ptr %8, align 4
  br label %111

84:                                               ; preds = %74
  %85 = load ptr, ptr %4, align 8, !tbaa !3
  %86 = getelementptr inbounds nuw %struct.WOLFSSL, ptr %85, i32 0, i32 49
  %87 = getelementptr inbounds nuw %struct.Options, ptr %86, i32 0, i32 23
  %88 = load i16, ptr %87, align 2, !tbaa !135
  %89 = zext i16 %88 to i32
  %90 = icmp sge i32 256, %89
  br i1 %90, label %91, label %109

91:                                               ; preds = %84
  %92 = load ptr, ptr %4, align 8, !tbaa !3
  %93 = getelementptr inbounds nuw %struct.WOLFSSL, ptr %92, i32 0, i32 49
  %94 = getelementptr inbounds nuw %struct.Options, ptr %93, i32 0, i32 24
  %95 = load i16, ptr %94, align 8, !tbaa !136
  %96 = zext i16 %95 to i32
  %97 = icmp sle i32 256, %96
  br i1 %97, label %98, label %109

98:                                               ; preds = %91
  %99 = load ptr, ptr %5, align 8, !tbaa !75
  %100 = load ptr, ptr %4, align 8, !tbaa !3
  %101 = getelementptr inbounds nuw %struct.WOLFSSL, ptr %100, i32 0, i32 12
  %102 = load ptr, ptr %101, align 16, !tbaa !52
  %103 = call i32 @TLSX_UseSupportedCurve(ptr noundef %99, i16 noundef zeroext 256, ptr noundef %102)
  store i32 %103, ptr %6, align 4, !tbaa !12
  %104 = load i32, ptr %6, align 4, !tbaa !12
  %105 = icmp ne i32 %104, 1
  br i1 %105, label %106, label %108

106:                                              ; preds = %98
  %107 = load i32, ptr %6, align 4, !tbaa !12
  store i32 %107, ptr %3, align 4
  store i32 1, ptr %8, align 4
  br label %111

108:                                              ; preds = %98
  br label %109

109:                                              ; preds = %108, %91, %84
  %110 = load i32, ptr %6, align 4, !tbaa !12
  store i32 %110, ptr %3, align 4
  store i32 1, ptr %8, align 4
  br label %111

111:                                              ; preds = %109, %106, %82, %72, %62, %52, %43
  call void @llvm.lifetime.end.p0(i64 4, ptr %6) #8
  %112 = load i32, ptr %3, align 4
  ret i32 %112
}