; Function Attrs: nounwind uwtable
define internal fastcc range(i32 -173, 2) i32 @TLSX_PopulateSupportedGroups(ptr noundef readonly captures(none) %0, ptr noundef captures(address_is_null) %1) unnamed_addr #0 {
  %3 = getelementptr inbounds nuw i8, ptr %0, i64 1104
  %4 = load i8, ptr %3, align 16, !tbaa !66
  %.not = icmp eq i8 %4, 0
  br i1 %.not, label %14, label %.lr.ph

.lr.ph:                                           ; preds = %2
  %5 = getelementptr inbounds nuw i8, ptr %0, i64 1084
  br label %10

6:                                                ; preds = %10
  %indvars.iv.next = add nuw nsw i64 %indvars.iv, 1
  %7 = load i8, ptr %3, align 16, !tbaa !66
  %8 = zext i8 %7 to i64
  %9 = icmp samesign ult i64 %indvars.iv.next, %8
  br i1 %9, label %10, label %.loopexit, !llvm.loop !115

10:                                               ; preds = %.lr.ph, %6
  %indvars.iv = phi i64 [ 0, %.lr.ph ], [ %indvars.iv.next, %6 ]
  %11 = getelementptr inbounds nuw [10 x i16], ptr %5, i64 0, i64 %indvars.iv
  %12 = load i16, ptr %11, align 2, !tbaa !64
  %13 = tail call i32 @TLSX_UseSupportedCurve(ptr noundef %1, i16 noundef zeroext %12, ptr poison)
  %.not48 = icmp eq i32 %13, 1
  br i1 %.not48, label %6, label %.loopexit

14:                                               ; preds = %2
  %15 = tail call i32 @TLSX_UseSupportedCurve(ptr noundef %1, i16 noundef zeroext 25, ptr poison)
  %.not43 = icmp eq i32 %15, 1
  br i1 %.not43, label %16, label %.loopexit

16:                                               ; preds = %14
  %17 = tail call i32 @TLSX_UseSupportedCurve(ptr noundef %1, i16 noundef zeroext 24, ptr poison)
  %.not44 = icmp eq i32 %17, 1
  br i1 %.not44, label %18, label %.loopexit

18:                                               ; preds = %16
  %19 = tail call i32 @TLSX_UseSupportedCurve(ptr noundef %1, i16 noundef zeroext 23, ptr poison)
  %.not45 = icmp eq i32 %19, 1
  br i1 %.not45, label %20, label %.loopexit

20:                                               ; preds = %18
  %21 = tail call i32 @TLSX_UseSupportedCurve(ptr noundef %1, i16 noundef zeroext 21, ptr poison)
  %.not46 = icmp eq i32 %21, 1
  br i1 %.not46, label %22, label %.loopexit

22:                                               ; preds = %20
  %23 = getelementptr inbounds nuw i8, ptr %0, i64 1054
  %24 = load i16, ptr %23, align 2, !tbaa !116
  %25 = icmp ult i16 %24, 257
  br i1 %25, label %26, label %32

26:                                               ; preds = %22
  %27 = getelementptr inbounds nuw i8, ptr %0, i64 1056
  %28 = load i16, ptr %27, align 8, !tbaa !117
  %29 = icmp ugt i16 %28, 255
  br i1 %29, label %30, label %32

30:                                               ; preds = %26
  %31 = tail call i32 @TLSX_UseSupportedCurve(ptr noundef %1, i16 noundef zeroext 256, ptr poison)
  %.not47 = icmp eq i32 %31, 1
  br i1 %.not47, label %32, label %.loopexit

32:                                               ; preds = %30, %26, %22
  br label %.loopexit

.loopexit:                                        ; preds = %6, %10, %30, %20, %18, %16, %14, %32
  %.1 = phi i32 [ 1, %32 ], [ %15, %14 ], [ %17, %16 ], [ %19, %18 ], [ %21, %20 ], [ %31, %30 ], [ 1, %6 ], [ %13, %10 ]
  ret i32 %.1
}